target datalayout = "e-m:e-p270:32:32-p271:32:32-p272:64:64-i64:64-i128:128-f80:128-n8:16:32:64-S128"
target triple = "x86_64-pc-linux-gnu"

%"struct.std::__detail::_Hash_node_base" = type { ptr }
%"struct.std::__detail::_Prime_rehash_policy" = type { float, i64 }
%"class.std::__cxx11::basic_string" = type { %"struct.std::__cxx11::basic_string<char>::_Alloc_hider", i64, %union.anon }
%"struct.std::__cxx11::basic_string<char>::_Alloc_hider" = type { ptr }
%union.anon = type { i64, [8 x i8] }
%"class.std::vector" = type { %"struct.std::_Vector_base" }
%"struct.std::_Vector_base" = type { %"struct.std::_Vector_base<std::unique_ptr<DfgGraph>, std::allocator<std::unique_ptr<DfgGraph>>>::_Vector_impl" }
%"struct.std::_Vector_base<std::unique_ptr<DfgGraph>, std::allocator<std::unique_ptr<DfgGraph>>>::_Vector_impl" = type { %"struct.std::_Vector_base<std::unique_ptr<DfgGraph>, std::allocator<std::unique_ptr<DfgGraph>>>::_Vector_impl_data" }
%"struct.std::_Vector_base<std::unique_ptr<DfgGraph>, std::allocator<std::unique_ptr<DfgGraph>>>::_Vector_impl_data" = type { ptr, ptr, ptr }
%class.ExtractCyclicComponents = type { ptr, %"class.std::deque", %"class.std::__cxx11::basic_string", i64, i8, i64, %"class.std::vector.8", %"class.std::vector", %"class.std::unordered_map" }
%"class.std::deque" = type { %"class.std::_Deque_base" }
%"class.std::_Deque_base" = type { %"struct.std::_Deque_base<ExtractCyclicComponents::VertexState, std::allocator<ExtractCyclicComponents::VertexState>>::_Deque_impl" }
%"struct.std::_Deque_base<ExtractCyclicComponents::VertexState, std::allocator<ExtractCyclicComponents::VertexState>>::_Deque_impl" = type { %"struct.std::_Deque_base<ExtractCyclicComponents::VertexState, std::allocator<ExtractCyclicComponents::VertexState>>::_Deque_impl_data" }
%"struct.std::_Deque_base<ExtractCyclicComponents::VertexState, std::allocator<ExtractCyclicComponents::VertexState>>::_Deque_impl_data" = type { ptr, i64, %"struct.std::_Deque_iterator", %"struct.std::_Deque_iterator" }
%"struct.std::_Deque_iterator" = type { ptr, ptr, ptr, ptr }
%"class.std::vector.8" = type { %"struct.std::_Vector_base.9" }
%"struct.std::_Vector_base.9" = type { %"struct.std::_Vector_base<DfgVertex *, std::allocator<DfgVertex *>>::_Vector_impl" }
%"struct.std::_Vector_base<DfgVertex *, std::allocator<DfgVertex *>>::_Vector_impl" = type { %"struct.std::_Vector_base<DfgVertex *, std::allocator<DfgVertex *>>::_Vector_impl_data" }
%"struct.std::_Vector_base<DfgVertex *, std::allocator<DfgVertex *>>::_Vector_impl_data" = type { ptr, ptr, ptr }
%"class.std::unordered_map" = type { %"class.std::_Hashtable" }
%"class.std::_Hashtable" = type { ptr, i64, %"struct.std::__detail::_Hash_node_base", i64, %"struct.std::__detail::_Prime_rehash_policy", ptr }

; Function Attrs: mustprogress nounwind uwtable
define linkonce_odr dso_local void @_ZNSt15__new_allocatorISt10unique_ptrI8DfgGraphSt14default_deleteIS1_EEEC2ERKS5_(ptr noundef nonnull align 1 dereferenceable(1) %0, ptr noundef nonnull align 1 dereferenceable(1) %1) unnamed_addr #6 comdat align 2 {
  %3 = alloca ptr, align 8
  %4 = alloca ptr, align 8
  store ptr %0, ptr %3, align 8, !tbaa !106
  store ptr %1, ptr %4, align 8, !tbaa !106
  ret void
}

; Function Attrs: mustprogress nounwind uwtable
define linkonce_odr dso_local void @_ZNSt12_Vector_baseISt10unique_ptrI8DfgGraphSt14default_deleteIS1_EESaIS4_EE17_Vector_impl_dataC2EOS7_(ptr noundef nonnull align 8 dereferenceable(24) %0, ptr noundef nonnull align 8 dereferenceable(24) %1) unnamed_addr #6 comdat align 2 {
  %3 = alloca ptr, align 8
  %4 = alloca ptr, align 8
  store ptr %0, ptr %3, align 8, !tbaa !103
  store ptr %1, ptr %4, align 8, !tbaa !103
  %5 = load ptr, ptr %3, align 8
  %6 = getelementptr inbounds nuw %"struct.std::_Vector_base<std::unique_ptr<DfgGraph>, std::allocator<std::unique_ptr<DfgGraph>>>::_Vector_impl_data", ptr %5, i32 0, i32 0
  %7 = load ptr, ptr %4, align 8, !tbaa !103
  %8 = getelementptr inbounds nuw %"struct.std::_Vector_base<std::unique_ptr<DfgGraph>, std::allocator<std::unique_ptr<DfgGraph>>>::_Vector_impl_data", ptr %7, i32 0, i32 0
  %9 = load ptr, ptr %8, align 8, !tbaa !48
  store ptr %9, ptr %6, align 8, !tbaa !48
  %10 = getelementptr inbounds nuw %"struct.std::_Vector_base<std::unique_ptr<DfgGraph>, std::allocator<std::unique_ptr<DfgGraph>>>::_Vector_impl_data", ptr %5, i32 0, i32 1
  %11 = load ptr, ptr %4, align 8, !tbaa !103
  %12 = getelementptr inbounds nuw %"struct.std::_Vector_base<std::unique_ptr<DfgGraph>, std::allocator<std::unique_ptr<DfgGraph>>>::_Vector_impl_data", ptr %11, i32 0, i32 1
  %13 = load ptr, ptr %12, align 8, !tbaa !79
  store ptr %13, ptr %10, align 8, !tbaa !79
  %14 = getelementptr inbounds nuw %"struct.std::_Vector_base<std::unique_ptr<DfgGraph>, std::allocator<std::unique_ptr<DfgGraph>>>::_Vector_impl_data", ptr %5, i32 0, i32 2
  %15 = load ptr, ptr %4, align 8, !tbaa !103
  %16 = getelementptr inbounds nuw %"struct.std::_Vector_base<std::unique_ptr<DfgGraph>, std::allocator<std::unique_ptr<DfgGraph>>>::_Vector_impl_data", ptr %15, i32 0, i32 2
  %17 = load ptr, ptr %16, align 8, !tbaa !105
  store ptr %17, ptr %14, align 8, !tbaa !105
  %18 = load ptr, ptr %4, align 8, !tbaa !103
  %19 = getelementptr inbounds nuw %"struct.std::_Vector_base<std::unique_ptr<DfgGraph>, std::allocator<std::unique_ptr<DfgGraph>>>::_Vector_impl_data", ptr %18, i32 0, i32 2
  store ptr null, ptr %19, align 8, !tbaa !105
  %20 = load ptr, ptr %4, align 8, !tbaa !103
  %21 = getelementptr inbounds nuw %"struct.std::_Vector_base<std::unique_ptr<DfgGraph>, std::allocator<std::unique_ptr<DfgGraph>>>::_Vector_impl_data", ptr %20, i32 0, i32 1
  store ptr null, ptr %21, align 8, !tbaa !79
  %22 = load ptr, ptr %4, align 8, !tbaa !103
  %23 = getelementptr inbounds nuw %"struct.std::_Vector_base<std::unique_ptr<DfgGraph>, std::allocator<std::unique_ptr<DfgGraph>>>::_Vector_impl_data", ptr %22, i32 0, i32 0
  store ptr null, ptr %23, align 8, !tbaa !48
  ret void
}

; Function Attrs: mustprogress nounwind uwtable
define linkonce_odr dso_local void @_ZNSaISt10unique_ptrI8DfgGraphSt14default_deleteIS0_EEEC2ERKS4_(ptr noundef nonnull align 1 dereferenceable(1) %0, ptr noundef nonnull align 1 dereferenceable(1) %1) unnamed_addr #6 comdat align 2 {
  %3 = alloca ptr, align 8
  %4 = alloca ptr, align 8
  store ptr %0, ptr %3, align 8, !tbaa !101
  store ptr %1, ptr %4, align 8, !tbaa !101
  %5 = load ptr, ptr %3, align 8
  %6 = load ptr, ptr %4, align 8, !tbaa !101
  call void @_ZNSt15__new_allocatorISt10unique_ptrI8DfgGraphSt14default_deleteIS1_EEEC2ERKS5_(ptr noundef nonnull align 1 dereferenceable(1) %5, ptr noundef nonnull align 1 dereferenceable(1) %6) #3
  ret void
}

; Function Attrs: mustprogress nounwind uwtable
define linkonce_odr dso_local void @_ZNSt12_Vector_baseISt10unique_ptrI8DfgGraphSt14default_deleteIS1_EESaIS4_EE12_Vector_implC2EOS7_(ptr noundef nonnull align 8 dereferenceable(24) %0, ptr noundef nonnull align 8 dereferenceable(24) %1) unnamed_addr #6 comdat align 2 {
  %3 = alloca ptr, align 8
  %4 = alloca ptr, align 8
  store ptr %0, ptr %3, align 8, !tbaa !99
  store ptr %1, ptr %4, align 8, !tbaa !99
  %5 = load ptr, ptr %3, align 8
  %6 = load ptr, ptr %4, align 8, !tbaa !99
  call void @_ZNSaISt10unique_ptrI8DfgGraphSt14default_deleteIS0_EEEC2ERKS4_(ptr noundef nonnull align 1 dereferenceable(1) %5, ptr noundef nonnull align 1 dereferenceable(1) %6) #3
  %7 = load ptr, ptr %4, align 8, !tbaa !99
  call void @_ZNSt12_Vector_baseISt10unique_ptrI8DfgGraphSt14default_deleteIS1_EESaIS4_EE17_Vector_impl_dataC2EOS7_(ptr noundef nonnull align 8 dereferenceable(24) %5, ptr noundef nonnull align 8 dereferenceable(24) %7) #3
  ret void
}

; Function Attrs: mustprogress nounwind uwtable
define linkonce_odr dso_local void @_ZNSt12_Vector_baseISt10unique_ptrI8DfgGraphSt14default_deleteIS1_EESaIS4_EEC2EOS6_(ptr noundef nonnull align 8 dereferenceable(24) %0, ptr noundef nonnull align 8 dereferenceable(24) %1) unnamed_addr #6 comdat align 2 {
  %3 = alloca ptr, align 8
  %4 = alloca ptr, align 8
  store ptr %0, ptr %3, align 8, !tbaa !97
  store ptr %1, ptr %4, align 8, !tbaa !97
  %5 = load ptr, ptr %3, align 8
  %6 = getelementptr inbounds nuw %"struct.std::_Vector_base", ptr %5, i32 0, i32 0
  %7 = load ptr, ptr %4, align 8, !tbaa !97
  %8 = getelementptr inbounds nuw %"struct.std::_Vector_base", ptr %7, i32 0, i32 0
  call void @_ZNSt12_Vector_baseISt10unique_ptrI8DfgGraphSt14default_deleteIS1_EESaIS4_EE12_Vector_implC2EOS7_(ptr noundef nonnull align 8 dereferenceable(24) %6, ptr noundef nonnull align 8 dereferenceable(24) %8) #3
  ret void
}

; Function Attrs: mustprogress nounwind uwtable
define linkonce_odr dso_local void @_ZNSt6vectorISt10unique_ptrI8DfgGraphSt14default_deleteIS1_EESaIS4_EEC2EOS6_(ptr noundef nonnull align 8 dereferenceable(24) %0, ptr noundef nonnull align 8 dereferenceable(24) %1) unnamed_addr #6 comdat align 2 {
  %3 = alloca ptr, align 8
  %4 = alloca ptr, align 8
  store ptr %0, ptr %3, align 8, !tbaa !28
  store ptr %1, ptr %4, align 8, !tbaa !28
  %5 = load ptr, ptr %3, align 8
  %6 = load ptr, ptr %4, align 8, !tbaa !28
  call void @_ZNSt12_Vector_baseISt10unique_ptrI8DfgGraphSt14default_deleteIS1_EESaIS4_EEC2EOS6_(ptr noundef nonnull align 8 dereferenceable(24) %5, ptr noundef nonnull align 8 dereferenceable(24) %6) #3
  ret void
}

; Function Attrs: mustprogress uwtable
define linkonce_odr dso_local void @_ZN23ExtractCyclicComponents5applyER8DfgGraphRKNSt7__cxx1112basic_stringIcSt11char_traitsIcESaIcEEE(ptr dead_on_unwind noalias writable sret(%"class.std::vector") align 8 %0, ptr noundef nonnull align 8 dereferenceable(104) %1, ptr noundef nonnull align 8 dereferenceable(32) %2) #4 comdat align 2 {
  %4 = alloca ptr, align 8
  %5 = alloca ptr, align 8
  %6 = alloca ptr, align 8
  %7 = alloca %class.ExtractCyclicComponents, align 8
  store ptr %0, ptr %4, align 8
  store ptr %1, ptr %5, align 8, !tbaa !4
  store ptr %2, ptr %6, align 8, !tbaa !9
  call void @llvm.lifetime.start.p0(i64 248, ptr %7) #3
  %8 = load ptr, ptr %5, align 8, !tbaa !4
  %9 = load ptr, ptr %6, align 8, !tbaa !9
  call void @_ZN23ExtractCyclicComponentsC2ER8DfgGraphRKNSt7__cxx1112basic_stringIcSt11char_traitsIcESaIcEEE(ptr noundef nonnull align 8 dereferenceable(248) %7, ptr noundef nonnull align 8 dereferenceable(104) %8, ptr noundef nonnull align 8 dereferenceable(32) %9)
  %10 = getelementptr inbounds nuw %class.ExtractCyclicComponents, ptr %7, i32 0, i32 7
  call void @_ZNSt6vectorISt10unique_ptrI8DfgGraphSt14default_deleteIS1_EESaIS4_EEC2EOS6_(ptr noundef nonnull align 8 dereferenceable(24) %0, ptr noundef nonnull align 8 dereferenceable(24) %10) #3
  call void @_ZN23ExtractCyclicComponentsD2Ev(ptr noundef nonnull align 8 dereferenceable(248) %7) #3
  call void @llvm.lifetime.end.p0(i64 248, ptr %7) #3
  ret void
}

; Function Attrs: mustprogress uwtable
define dso_local void @_ZN8DfgGraph23extractCyclicComponentsENSt7__cxx1112basic_stringIcSt11char_traitsIcESaIcEEE(ptr dead_on_unwind noalias writable sret(%"class.std::vector") align 8 %0, ptr noundef nonnull align 8 dereferenceable(104) %1, ptr noundef %2) #4 align 2 {
  %4 = alloca ptr, align 8
  %5 = alloca ptr, align 8
  %6 = alloca ptr, align 8
  store ptr %0, ptr %4, align 8
  store ptr %1, ptr %5, align 8, !tbaa !4
  store ptr %2, ptr %6, align 8, !tbaa !9
  %7 = load ptr, ptr %5, align 8
  call void @_ZN23ExtractCyclicComponents5applyER8DfgGraphRKNSt7__cxx1112basic_stringIcSt11char_traitsIcESaIcEEE(ptr dead_on_unwind writable sret(%"class.std::vector") align 8 %0, ptr noundef nonnull align 8 dereferenceable(104) %7, ptr noundef nonnull align 8 dereferenceable(32) %2)
  ret void
}