; Function Attrs: mustprogress uwtable
define dso_local void @_ZN8DfgGraph23extractCyclicComponentsENSt7__cxx1112basic_stringIcSt11char_traitsIcESaIcEEE(ptr dead_on_unwind noalias writable writeonly sret(%"class.std::vector") align 8 captures(none) initializes((0, 24)) %0, ptr noundef nonnull align 8 dereferenceable(104) %1, ptr noundef nonnull %2) #3 align 2 {
  %4 = alloca %class.ExtractCyclicComponents, align 8
  tail call void @llvm.experimental.noalias.scope.decl(metadata !22)
  call void @llvm.lifetime.start.p0(i64 248, ptr nonnull %4) #23, !noalias !22
  call void @_ZN23ExtractCyclicComponentsC2ER8DfgGraphRKNSt7__cxx1112basic_stringIcSt11char_traitsIcESaIcEEE(ptr noundef nonnull align 8 dereferenceable(248) %4, ptr noundef nonnull align 8 dereferenceable(104) %1, ptr noundef nonnull align 8 dereferenceable(32) %2), !noalias !22
  %5 = getelementptr inbounds nuw i8, ptr %4, i64 168
  %6 = load ptr, ptr %5, align 8, !tbaa !7, !noalias !22
  store ptr %6, ptr %0, align 8, !tbaa !7, !alias.scope !22
  %7 = getelementptr inbounds nuw i8, ptr %0, i64 8
  %8 = getelementptr inbounds nuw i8, ptr %4, i64 176
  %9 = load ptr, ptr %8, align 8, !tbaa !13, !noalias !22
  store ptr %9, ptr %7, align 8, !tbaa !13, !alias.scope !22
  %10 = getelementptr inbounds nuw i8, ptr %0, i64 16
  %11 = getelementptr inbounds nuw i8, ptr %4, i64 184
  %12 = load ptr, ptr %11, align 8, !tbaa !14, !noalias !22
  store ptr %12, ptr %10, align 8, !tbaa !14, !alias.scope !22
  call void @llvm.memset.p0.i64(ptr noundef nonnull align 8 dereferenceable(24) %5, i8 0, i64 24, i1 false), !noalias !22
  call void @_ZN23ExtractCyclicComponentsD2Ev(ptr noundef nonnull align 8 dereferenceable(248) %4) #23, !noalias !22
  call void @llvm.lifetime.end.p0(i64 248, ptr nonnull %4) #23, !noalias !22
  ret void
}